; Function Attrs: nounwind uwtable
define ptr @l_Array_foldlMUnsafe_fold___at_Lake_Package_mkLeanConfig___spec__8(ptr readnone captures(none) %0, ptr noundef %1, ptr noundef readonly captures(none) %2, i64 noundef %3, i64 noundef %4, ptr noundef %5) local_unnamed_addr #0 {
  %.not66 = icmp eq i64 %3, %4
  br i1 %.not66, label %._crit_edge, label %.lr.ph

.lr.ph:                                           ; preds = %6
  %7 = getelementptr inbounds nuw i8, ptr %2, i64 24
  br label %8

8:                                                ; preds = %.lr.ph, %lean_dec.exit38
  %.03168 = phi i64 [ %3, %.lr.ph ], [ %41, %lean_dec.exit38 ]
  %.03367 = phi ptr [ %5, %.lr.ph ], [ %.235, %lean_dec.exit38 ]
  %9 = getelementptr inbounds nuw [0 x ptr], ptr %7, i64 0, i64 %.03168
  %10 = load ptr, ptr %9, align 8, !tbaa !12
  %11 = ptrtoint ptr %10 to i64
  %12 = and i64 %11, 1
  %.not.i46 = icmp eq i64 %12, 0
  br i1 %.not.i46, label %13, label %lean_array_uget.exit

13:                                               ; preds = %8
  %.val.i.i = load i32, ptr %10, align 4, !tbaa !8
  %14 = icmp sgt i32 %.val.i.i, 0
  br i1 %14, label %15, label %17, !prof !11

15:                                               ; preds = %13
  %16 = add nuw i32 %.val.i.i, 1
  store i32 %16, ptr %10, align 4, !tbaa !8
  br label %lean_array_uget.exit

17:                                               ; preds = %13
  %.not.i.i = icmp eq i32 %.val.i.i, 0
  br i1 %.not.i.i, label %lean_array_uget.exit, label %18

18:                                               ; preds = %17
  tail call void @lean_inc_ref_cold(ptr noundef nonnull %10) #6
  br label %lean_array_uget.exit

lean_array_uget.exit:                             ; preds = %8, %15, %17, %18
  %19 = getelementptr inbounds nuw i8, ptr %10, i64 24
  %20 = load ptr, ptr %19, align 8, !tbaa !12
  %21 = ptrtoint ptr %20 to i64
  %22 = and i64 %21, 1
  %.not61 = icmp eq i64 %22, 0
  br i1 %.not61, label %23, label %lean_inc.exit41

23:                                               ; preds = %lean_array_uget.exit
  %.val.i = load i32, ptr %20, align 4, !tbaa !8
  %24 = icmp sgt i32 %.val.i, 0
  br i1 %24, label %25, label %27, !prof !11

25:                                               ; preds = %23
  %26 = add nuw i32 %.val.i, 1
  store i32 %26, ptr %20, align 4, !tbaa !8
  br label %31

27:                                               ; preds = %23
  %.not.i47 = icmp eq i32 %.val.i, 0
  br i1 %.not.i47, label %31, label %28

28:                                               ; preds = %27
  tail call void @lean_inc_ref_cold(ptr noundef nonnull %20) #6
  br label %31

lean_inc.exit41:                                  ; preds = %lean_array_uget.exit
  %29 = load ptr, ptr @l_Lake_InputFile_keyword, align 8, !tbaa !12
  %30 = tail call zeroext i8 @lean_name_eq(ptr noundef %20, ptr noundef %29) #6
  br label %lean_dec.exit39

31:                                               ; preds = %28, %27, %25
  %32 = load ptr, ptr @l_Lake_InputFile_keyword, align 8, !tbaa !12
  %33 = tail call zeroext i8 @lean_name_eq(ptr noundef nonnull %20, ptr noundef %32) #6
  %34 = load i32, ptr %20, align 4, !tbaa !8
  %35 = icmp sgt i32 %34, 1
  br i1 %35, label %36, label %38, !prof !11

36:                                               ; preds = %31
  %37 = add nsw i32 %34, -1
  store i32 %37, ptr %20, align 4, !tbaa !8
  br label %lean_dec.exit39

38:                                               ; preds = %31
  %.not.i = icmp eq i32 %34, 0
  br i1 %.not.i, label %lean_dec.exit39, label %39

39:                                               ; preds = %38
  tail call void @lean_dec_ref_cold(ptr noundef nonnull %20) #6
  br label %lean_dec.exit39

lean_dec.exit39:                                  ; preds = %39, %38, %36, %lean_inc.exit41
  %40 = phi i8 [ %30, %lean_inc.exit41 ], [ %33, %36 ], [ %33, %38 ], [ %33, %39 ]
  %41 = add i64 %.03168, 1
  %42 = icmp eq i8 %40, 0
  br i1 %42, label %43, label %51

43:                                               ; preds = %lean_dec.exit39
  br i1 %.not.i46, label %44, label %lean_dec.exit38

44:                                               ; preds = %43
  %45 = load i32, ptr %10, align 4, !tbaa !8
  %46 = icmp sgt i32 %45, 1
  br i1 %46, label %47, label %49, !prof !11

47:                                               ; preds = %44
  %48 = add nsw i32 %45, -1
  store i32 %48, ptr %10, align 4, !tbaa !8
  br label %lean_dec.exit38

49:                                               ; preds = %44
  %.not.i42 = icmp eq i32 %45, 0
  br i1 %.not.i42, label %lean_dec.exit38, label %50

50:                                               ; preds = %49
  tail call void @lean_dec_ref_cold(ptr noundef nonnull %10) #6
  br label %lean_dec.exit38

51:                                               ; preds = %lean_dec.exit39
  %52 = getelementptr inbounds nuw i8, ptr %10, i64 32
  %53 = load ptr, ptr %52, align 8, !tbaa !12
  %54 = ptrtoint ptr %53 to i64
  %55 = and i64 %54, 1
  %.not62 = icmp eq i64 %55, 0
  br i1 %.not62, label %56, label %lean_inc.exit40

56:                                               ; preds = %51
  %.val.i48 = load i32, ptr %53, align 4, !tbaa !8
  %57 = icmp sgt i32 %.val.i48, 0
  br i1 %57, label %58, label %60, !prof !11

58:                                               ; preds = %56
  %59 = add nuw i32 %.val.i48, 1
  store i32 %59, ptr %53, align 4, !tbaa !8
  br label %lean_inc.exit40

60:                                               ; preds = %56
  %.not.i49 = icmp eq i32 %.val.i48, 0
  br i1 %.not.i49, label %lean_inc.exit40, label %61

61:                                               ; preds = %60
  tail call void @lean_inc_ref_cold(ptr noundef nonnull %53) #6
  br label %lean_inc.exit40

lean_inc.exit40:                                  ; preds = %61, %60, %58, %51
  %62 = getelementptr inbounds nuw i8, ptr %10, i64 16
  %63 = load ptr, ptr %62, align 8, !tbaa !12
  %64 = ptrtoint ptr %63 to i64
  %65 = and i64 %64, 1
  %.not63 = icmp eq i64 %65, 0
  br i1 %.not63, label %66, label %lean_inc.exit

66:                                               ; preds = %lean_inc.exit40
  %.val.i51 = load i32, ptr %63, align 4, !tbaa !8
  %67 = icmp sgt i32 %.val.i51, 0
  br i1 %67, label %68, label %70, !prof !11

68:                                               ; preds = %66
  %69 = add nuw i32 %.val.i51, 1
  store i32 %69, ptr %63, align 4, !tbaa !8
  br label %lean_inc.exit

70:                                               ; preds = %66
  %.not.i52 = icmp eq i32 %.val.i51, 0
  br i1 %.not.i52, label %lean_inc.exit, label %71

71:                                               ; preds = %70
  tail call void @lean_inc_ref_cold(ptr noundef nonnull %63) #6
  br label %lean_inc.exit

lean_inc.exit:                                    ; preds = %71, %70, %68, %lean_inc.exit40
  br i1 %.not.i46, label %72, label %lean_dec.exit

72:                                               ; preds = %lean_inc.exit
  %73 = load i32, ptr %10, align 4, !tbaa !8
  %74 = icmp sgt i32 %73, 1
  br i1 %74, label %75, label %77, !prof !11

75:                                               ; preds = %72
  %76 = add nsw i32 %73, -1
  store i32 %76, ptr %10, align 4, !tbaa !8
  br label %lean_dec.exit

77:                                               ; preds = %72
  %.not.i44 = icmp eq i32 %73, 0
  br i1 %.not.i44, label %lean_dec.exit, label %78

78:                                               ; preds = %77
  tail call void @lean_dec_ref_cold(ptr noundef nonnull %10) #6
  br label %lean_dec.exit

lean_dec.exit:                                    ; preds = %78, %77, %75, %lean_inc.exit
  %79 = tail call zeroext i8 @l_Lean_NameSet_contains(ptr noundef %1, ptr noundef %63) #6
  %80 = tail call ptr @l_Lake_InputFileConfig_mkCommand(ptr noundef %63, ptr noundef %53, i8 noundef zeroext %79)
  %81 = tail call ptr @lean_array_push(ptr noundef %.03367, ptr noundef %80) #6
  br label %lean_dec.exit38

lean_dec.exit38:                                  ; preds = %43, %47, %49, %50, %lean_dec.exit
  %.235 = phi ptr [ %81, %lean_dec.exit ], [ %.03367, %50 ], [ %.03367, %49 ], [ %.03367, %47 ], [ %.03367, %43 ]
  %.not = icmp eq i64 %41, %4
  br i1 %.not, label %._crit_edge, label %8

._crit_edge:                                      ; preds = %lean_dec.exit38, %6
  %.033.lcssa = phi ptr [ %5, %6 ], [ %.235, %lean_dec.exit38 ]
  ret ptr %.033.lcssa
}